ccopy_reg
_reconstructor
p1
(cDRP.research.geoffrey.distance_learning.metricLearn.ITML
ITML
p2
c__builtin__
object
p3
NtRp4
(dp5
S'distance_function'
p6
NsS'matrix'
p7
cnumpy.core.multiarray
_reconstruct
p8
(cnumpy
ndarray
p9
(I0
tS'b'
tRp10
(I1
(I1
I1
tcnumpy
dtype
p11
(S'f8'
I0
I1
tRp12
(I3
S'<'
NNNI-1
I-1
I0
tbI00
S'\xe3Lt\xbeu\xb3\x04?'
tbsb.